ccollections
OrderedDict
p0
((lp1
(lp2
(S'dmsgo'
p3
S'stim1'
p4
tp5
acnumpy.core.multiarray
_reconstruct
p6
(cnumpy
ndarray
p7
(I0
tp8
S'b'
p9
tp10
Rp11
(I1
(I1
I2
tp12
cnumpy
dtype
p13
(S'f8'
p14
I0
I1
tp15
Rp16
(I3
S'<'
p17
NNNI-1
I-1
I0
tp18
bI00
S';\xa8\xbe+$\xb5\xfb?\xa2\xdc\xd5\x98\xd7\xa1\xb8?'
p19
tp20
baa(lp21
(S'dmcgo'
p22
g4
tp23
ag6
(g7
(I0
tp24
g9
tp25
Rp26
(I1
(I1
I2
tp27
g16
I00
S'\x9f\xd9\xe8\x94@l\xf0\xbfBY\xa3^^\xa7\xed?'
p28
tp29
baa(lp30
(S'dmsnogo'
p31
g4
tp32
ag6
(g7
(I0
tp33
g9
tp34
Rp35
(I1
(I1
I2
tp36
g16
I00
S'\x95E\xd3\xd2lI\xe4?S\\\xf7"\x86\xfc\xd2\xbf'
p37
tp38
baa(lp39
(S'dmcnogo'
p40
g4
tp41
ag6
(g7
(I0
tp42
g9
tp43
Rp44
(I1
(I1
I2
tp45
g16
I00
S'gq?\x00\x9am\xf5\xbf\xaffB@V=\xe7\xbf'
p46
tp47
baatp48
Rp49
.