(dp0
S'perfs'
p1
cnumpy.core.multiarray
_reconstruct
p2
(cnumpy
ndarray
p3
(I0
tp4
S'b'
p5
tp6
Rp7
(I1
(I4
tp8
cnumpy
dtype
p9
(S'f8'
p10
I0
I1
tp11
Rp12
(I3
S'<'
p13
NNNI-1
I-1
I0
tp14
bI00
S'\x00\x00\x00\x00\x00\x00\xf0?\xb5\xc8v\xbe\x9f\x1a\xdf?\xcb\xa1E\xb6\xf3\xfd\xe0?\x93\x18\x04V\x0e-\xea?'
p15
tp16
bsS'rule'
p17
S'delayanti'
p18
sS'names'
p19
(lp20
S'Dly Anti'
p21
aS'Anti'
p22
aS'Anti\n+Dly Go'
p23
aS'Anti\n+Dly Go\n-Go'
p24
as.