(dp0
S'perfs'
p1
cnumpy.core.multiarray
_reconstruct
p2
(cnumpy
ndarray
p3
(I0
tp4
S'b'
p5
tp6
Rp7
(I1
(I5
tp8
cnumpy
dtype
p9
(S'f8'
p10
I0
I1
tp11
Rp12
(I3
S'<'
p13
NNNI-1
I-1
I0
tp14
bI00
S'0\xdd$\x06\x81\x95\xef?\x00\x00\x00\x00\x00\x00\xe0?\x9a\x99\x99\x99\x99\x99\xe1?\xef\xa7\xc6K7\x89\xe1?\x96C\x8bl\xe7\xfb\xe9?'
p15
tp16
bsS'rule'
p17
S'contextdelaydm1'
p18
sS'names'
p19
(lp20
S'Ctx Dly DM 1'
p21
aS'Ctx Dly DM 2'
p22
aS'Ctx Dly DM 2\n+Ctx DM 1'
p23
aS'Ctx DM 1'
p24
aS'Ctx Dly DM 2\n+Ctx DM 1\n-Ctx DM 2'
p25
as.