ccollections
OrderedDict
p0
((lp1
(lp2
(S'fdgo'
p3
S'stim1'
p4
tp5
acnumpy.core.multiarray
_reconstruct
p6
(cnumpy
ndarray
p7
(I0
tp8
S'b'
p9
tp10
Rp11
(I1
(I1
I2
tp12
cnumpy
dtype
p13
(S'f8'
p14
I0
I1
tp15
Rp16
(I3
S'<'
p17
NNNI-1
I-1
I0
tp18
bI00
S'\x97\x88\xe2O\x01\x8a\xf1?#\x88\xde\x05\x8c-\xe8?'
p19
tp20
baa(lp21
(S'fdanti'
p22
g4
tp23
ag6
(g7
(I0
tp24
g9
tp25
Rp26
(I1
(I1
I2
tp27
g16
I00
S'}Q1\x0eS\r\xf6?Y=\xbfl\xf1j\xe6\xbf'
p28
tp29
baa(lp30
(S'delaygo'
p31
g4
tp32
ag6
(g7
(I0
tp33
g9
tp34
Rp35
(I1
(I1
I2
tp36
g16
I00
S'\xed\xdb\x17\x98{\xf0\xf2\xbf\x18\\\xaf#J\xd3\xe3?'
p37
tp38
baa(lp39
(S'delayanti'
p40
g4
tp41
ag6
(g7
(I0
tp42
g9
tp43
Rp44
(I1
(I1
I2
tp45
g16
I00
S'(\xfe\xfb\xc5\xd8\xa6\xf4\xbf\xe5\xa6\xce\xbc\xe4\x95\xe5\xbf'
p46
tp47
baatp48
Rp49
.