(dp0
S'perfs'
p1
cnumpy.core.multiarray
_reconstruct
p2
(cnumpy
ndarray
p3
(I0
tp4
S'b'
p5
tp6
Rp7
(I1
(I4
tp8
cnumpy
dtype
p9
(S'f8'
p10
I0
I1
tp11
Rp12
(I3
S'<'
p13
NNNI-1
I-1
I0
tp14
bI00
S'\x82\x95C\x8bl\xe7\xef?&1\x08\xac\x1cZ\xe8?\r\x02+\x87\x16\xd9\xde?\r\x02+\x87\x16\xd9\xde?'
p15
tp16
bsS'rule'
p17
S'dmsgo'
p18
sS'names'
p19
(lp20
S'DMS'
p21
aS'DMC'
p22
aS'DMC\n+DNMS'
p23
aS'DMC\n+DNMS\n-DNMC'
p24
as.